Certificate:
    Data:
        Version: 3 (0x2)
        Serial Number: 4096 (0x1000)
    Signature Algorithm: sha1WithRSAEncryption
        Issuer: C=US, ST=NY, L=Syracuse, O=Internet Widgits Pty Ltd, CN=MiniVPNCA.com
        Validity
            Not Before: Apr 20 01:35:10 2016 GMT
            Not After : Apr 20 01:35:10 2017 GMT
        Subject: C=US, ST=NY, L=Syracuse, O=Internet Widgits Pty Ltd, CN=MiniVPNServer.com
        Subject Public Key Info:
            Public Key Algorithm: rsaEncryption
                Public-Key: (1024 bit)
                Modulus:
                    00:b5:87:df:d0:ae:28:81:b4:5c:be:44:f9:c0:aa:
                    6f:a5:ea:9b:4f:52:2a:1b:44:3d:1b:34:b0:6a:6e:
                    9b:08:6f:ca:7b:cc:e6:e5:f4:40:06:a4:0b:38:10:
                    0c:c9:6e:2a:cb:80:58:76:b0:a3:8e:08:3c:73:b6:
                    d1:3d:b6:ac:31:e9:bd:1c:22:a3:ab:dd:74:ac:f6:
                    7f:83:ea:68:e0:e9:48:bd:e5:b4:42:f7:2b:d6:8d:
                    08:04:4b:0c:fb:f4:be:46:ca:70:44:8d:00:e1:2d:
                    88:b5:16:bb:1c:f1:55:73:13:47:87:92:e4:e5:9b:
                    ab:64:2e:39:5f:fc:74:80:bd
                Exponent: 65537 (0x10001)
        X509v3 extensions:
            X509v3 Basic Constraints: 
                CA:FALSE
            Netscape Comment: 
                OpenSSL Generated Certificate
            X509v3 Subject Key Identifier: 
                4A:38:B7:78:37:B6:0D:B2:35:AB:36:C8:B9:8C:78:90:37:6D:6B:28
            X509v3 Authority Key Identifier: 
                keyid:7B:24:15:99:8A:CE:F0:C1:50:7B:68:9C:6C:C8:D4:42:5D:F3:06:F1

    Signature Algorithm: sha1WithRSAEncryption
         9b:86:75:d5:af:09:bc:56:aa:89:82:ec:24:11:a6:d7:be:da:
         40:24:f9:d4:0e:92:3b:30:92:f4:a6:57:de:b8:77:47:44:77:
         93:cd:76:23:97:49:98:35:75:a2:74:18:12:56:2e:71:96:05:
         57:25:26:de:df:61:1b:3d:d9:80:98:ea:0c:d6:e2:94:65:55:
         be:20:9b:13:4c:55:78:a8:f9:34:65:b9:fa:0e:1f:19:59:90:
         51:58:e9:f0:28:ca:ae:e6:bd:05:e6:e6:9d:43:50:95:1f:c5:
         b8:38:5d:59:dc:2f:85:e6:4f:22:db:03:a7:7f:71:42:00:cf:
         04:40
-----BEGIN CERTIFICATE-----
MIICxjCCAi+gAwIBAgICEAAwDQYJKoZIhvcNAQEFBQAwaDELMAkGA1UEBhMCVVMx
CzAJBgNVBAgMAk5ZMREwDwYDVQQHDAhTeXJhY3VzZTEhMB8GA1UECgwYSW50ZXJu
ZXQgV2lkZ2l0cyBQdHkgTHRkMRYwFAYDVQQDDA1NaW5pVlBOQ0EuY29tMB4XDTE2
MDQyMDAxMzUxMFoXDTE3MDQyMDAxMzUxMFowbDELMAkGA1UEBhMCVVMxCzAJBgNV
BAgMAk5ZMREwDwYDVQQHDAhTeXJhY3VzZTEhMB8GA1UECgwYSW50ZXJuZXQgV2lk
Z2l0cyBQdHkgTHRkMRowGAYDVQQDDBFNaW5pVlBOU2VydmVyLmNvbTCBnzANBgkq
hkiG9w0BAQEFAAOBjQAwgYkCgYEAtYff0K4ogbRcvkT5wKpvpeqbT1IqG0Q9GzSw
am6bCG/Ke8zm5fRABqQLOBAMyW4qy4BYdrCjjgg8c7bRPbasMem9HCKjq910rPZ/
g+po4OlIveW0Qvcr1o0IBEsM+/S+RspwRI0A4S2ItRa7HPFVcxNHh5Lk5ZurZC45
X/x0gL0CAwEAAaN7MHkwCQYDVR0TBAIwADAsBglghkgBhvhCAQ0EHxYdT3BlblNT
TCBHZW5lcmF0ZWQgQ2VydGlmaWNhdGUwHQYDVR0OBBYEFEo4t3g3tg2yNas2yLmM
eJA3bWsoMB8GA1UdIwQYMBaAFHskFZmKzvDBUHtonGzI1EJd8wbxMA0GCSqGSIb3
DQEBBQUAA4GBAJuGddWvCbxWqomC7CQRpte+2kAk+dQOkjswkvSmV964d0dEd5PN
diOXSZg1daJ0GBJWLnGWBVclJt7fYRs92YCY6gzW4pRlVb4gmxNMVXio+TRlufoO
HxlZkFFY6fAoyq7mvQXm5p1DUJUfxbg4XVncL4XmTyLbA6d/cUIAzwRA
-----END CERTIFICATE-----
